
/var/folders/m7/41pr8n2n6xb_qvh8c7kb1tth0000gn/T/tmp.HX7AayDL/comp2_i.s.obj:     file format elf32-littleriscv


Disassembly of section .text:

00010054 <_start>:
   10054:	84000137          	lui	x2,0x84000
   10058:	d4010113          	addi	x2,x2,-704 # 83fffd40 <__global_pointer$+0x83fedfd8>
   1005c:	2a112e23          	sw	x1,700(x2)
   10060:	2a812c23          	sw	x8,696(x2)
   10064:	2a912a23          	sw	x9,692(x2)
   10068:	2b212823          	sw	x18,688(x2)
   1006c:	2b312623          	sw	x19,684(x2)
   10070:	2b412423          	sw	x20,680(x2)
   10074:	2b512223          	sw	x21,676(x2)
   10078:	2ba12023          	sw	x26,672(x2)
   1007c:	deffed37          	lui	x26,0xdeffe
   10080:	effd0d13          	addi	x26,x26,-257 # deffdeff <__global_pointer$+0xdefec197>
   10084:	03c00793          	li	x15,60
   10088:	06f12023          	sw	x15,96(x2)
   1008c:	00100493          	li	x9,1
   10090:	09000913          	li	x18,144
   10094:	fff48a13          	addi	x20,x9,-1
   10098:	00c00593          	li	x11,12
   1009c:	00048513          	mv	x10,x9
   100a0:	00000097          	auipc	x1,0x0
   100a4:	40c080e7          	jalr	1036(x1) # 104ac <__udivsi3>
   100a8:	00050413          	mv	x8,x10
   100ac:	00c00593          	li	x11,12
   100b0:	00048513          	mv	x10,x9
   100b4:	00000097          	auipc	x1,0x0
   100b8:	418080e7          	jalr	1048(x1) # 104cc <__umodsi3>
   100bc:	00141713          	slli	x14,x8,0x1
   100c0:	00870733          	add	x14,x14,x8
   100c4:	00271793          	slli	x15,x14,0x2
   100c8:	00078713          	mv	x14,x15
   100cc:	00a78433          	add	x8,x15,x10
   100d0:	00241413          	slli	x8,x8,0x2
   100d4:	2a010793          	addi	x15,x2,672
   100d8:	00878433          	add	x8,x15,x8
   100dc:	00c00593          	li	x11,12
   100e0:	000a0513          	mv	x10,x20
   100e4:	00000097          	auipc	x1,0x0
   100e8:	3c8080e7          	jalr	968(x1) # 104ac <__udivsi3>
   100ec:	00050993          	mv	x19,x10
   100f0:	00c00593          	li	x11,12
   100f4:	000a0513          	mv	x10,x20
   100f8:	00000097          	auipc	x1,0x0
   100fc:	3d4080e7          	jalr	980(x1) # 104cc <__umodsi3>
   10100:	00199713          	slli	x14,x19,0x1
   10104:	01370733          	add	x14,x14,x19
   10108:	00271793          	slli	x15,x14,0x2
   1010c:	00078713          	mv	x14,x15
   10110:	00a787b3          	add	x15,x15,x10
   10114:	00279793          	slli	x15,x15,0x2
   10118:	2a010713          	addi	x14,x2,672
   1011c:	00f707b3          	add	x15,x14,x15
   10120:	dc07a783          	lw	x15,-576(x15)
   10124:	00379513          	slli	x10,x15,0x3
   10128:	40f50533          	sub	x10,x10,x15
   1012c:	02900593          	li	x11,41
   10130:	01d50513          	addi	x10,x10,29
   10134:	00000097          	auipc	x1,0x0
   10138:	324080e7          	jalr	804(x1) # 10458 <__modsi3>
   1013c:	dca42023          	sw	x10,-576(x8)
   10140:	00148493          	addi	x9,x9,1
   10144:	f52498e3          	bne	x9,x18,10094 <_start+0x40>
   10148:	06010413          	addi	x8,x2,96
   1014c:	00010993          	mv	x19,x2
   10150:	2a010913          	addi	x18,x2,672
   10154:	00098493          	mv	x9,x19
   10158:	00c00593          	li	x11,12
   1015c:	00040513          	mv	x10,x8
   10160:	00000097          	auipc	x1,0x0
   10164:	1a4080e7          	jalr	420(x1) # 10304 <iter>
   10168:	00a4a023          	sw	x10,0(x9)
   1016c:	00b4a223          	sw	x11,4(x9)
   10170:	03040413          	addi	x8,x8,48
   10174:	00848493          	addi	x9,x9,8
   10178:	ff2410e3          	bne	x8,x18,10158 <_start+0x104>
   1017c:	00100413          	li	x8,1
   10180:	00000913          	li	x18,0
   10184:	00000493          	li	x9,0
   10188:	00000a13          	li	x20,0
   1018c:	00d00a93          	li	x21,13
   10190:	0009a603          	lw	x12,0(x19)
   10194:	0049a683          	lw	x13,4(x19)
   10198:	00040513          	mv	x10,x8
   1019c:	00090593          	mv	x11,x18
   101a0:	00000097          	auipc	x1,0x0
   101a4:	34c080e7          	jalr	844(x1) # 104ec <__muldi3>
   101a8:	00a48733          	add	x14,x9,x10
   101ac:	009737b3          	sltu	x15,x14,x9
   101b0:	00ba06b3          	add	x13,x20,x11
   101b4:	00d787b3          	add	x15,x15,x13
   101b8:	00078693          	mv	x13,x15
   101bc:	00070493          	mv	x9,x14
   101c0:	00078a13          	mv	x20,x15
   101c4:	00898993          	addi	x19,x19,8
   101c8:	00140793          	addi	x15,x8,1
   101cc:	0087b733          	sltu	x14,x15,x8
   101d0:	00078413          	mv	x8,x15
   101d4:	01270933          	add	x18,x14,x18
   101d8:	fb579ce3          	bne	x15,x21,10190 <_start+0x13c>
   101dc:	fa091ae3          	bnez	x18,10190 <_start+0x13c>
   101e0:	048f67b7          	lui	x15,0x48f6
   101e4:	fa078793          	addi	x15,x15,-96 # 48f5fa0 <__global_pointer$+0x48e4238>
   101e8:	00f49663          	bne	x9,x15,101f4 <_start+0x1a0>
   101ec:	01200793          	li	x15,18
   101f0:	00f68863          	beq	x13,x15,10200 <_start+0x1ac>
   101f4:	0badc7b7          	lui	x15,0xbadc
   101f8:	0de78793          	addi	x15,x15,222 # badc0de <__global_pointer$+0xbaca376>
   101fc:	00c0006f          	j	10208 <_start+0x1b4>
   10200:	600d67b7          	lui	x15,0x600d6
   10204:	00d78793          	addi	x15,x15,13 # 600d600d <__global_pointer$+0x600c42a5>
   10208:	00078d13          	mv	x26,x15
   1020c:	0000006f          	j	1020c <_start+0x1b8>

00010210 <gcd>:
   10210:	00b567b3          	or	x15,x10,x11
   10214:	04078c63          	beqz	x15,1026c <gcd+0x5c>
   10218:	ff010113          	addi	x2,x2,-16
   1021c:	00112623          	sw	x1,12(x2)
   10220:	00812423          	sw	x8,8(x2)
   10224:	00912223          	sw	x9,4(x2)
   10228:	00058493          	mv	x9,x11
   1022c:	00b55863          	bge	x10,x11,1023c <gcd+0x2c>
   10230:	00050793          	mv	x15,x10
   10234:	00058513          	mv	x10,x11
   10238:	00078493          	mv	x9,x15
   1023c:	02050c63          	beqz	x10,10274 <gcd+0x64>
   10240:	04049263          	bnez	x9,10284 <gcd+0x74>
   10244:	00050493          	mv	x9,x10
   10248:	0340006f          	j	1027c <gcd+0x6c>
   1024c:	00040593          	mv	x11,x8
   10250:	00048513          	mv	x10,x9
   10254:	00000097          	auipc	x1,0x0
   10258:	204080e7          	jalr	516(x1) # 10458 <__modsi3>
   1025c:	00040493          	mv	x9,x8
   10260:	00050413          	mv	x8,x10
   10264:	fe0414e3          	bnez	x8,1024c <gcd+0x3c>
   10268:	0140006f          	j	1027c <gcd+0x6c>
   1026c:	00100513          	li	x10,1
   10270:	00008067          	ret
   10274:	00048513          	mv	x10,x9
   10278:	0200006f          	j	10298 <gcd+0x88>
   1027c:	00048513          	mv	x10,x9
   10280:	0180006f          	j	10298 <gcd+0x88>
   10284:	00048593          	mv	x11,x9
   10288:	00000097          	auipc	x1,0x0
   1028c:	1d0080e7          	jalr	464(x1) # 10458 <__modsi3>
   10290:	00050413          	mv	x8,x10
   10294:	fd1ff06f          	j	10264 <gcd+0x54>
   10298:	00c12083          	lw	x1,12(x2)
   1029c:	00812403          	lw	x8,8(x2)
   102a0:	00412483          	lw	x9,4(x2)
   102a4:	01010113          	addi	x2,x2,16
   102a8:	00008067          	ret

000102ac <lcm>:
   102ac:	ff010113          	addi	x2,x2,-16
   102b0:	00112623          	sw	x1,12(x2)
   102b4:	00812423          	sw	x8,8(x2)
   102b8:	00912223          	sw	x9,4(x2)
   102bc:	00050413          	mv	x8,x10
   102c0:	00058493          	mv	x9,x11
   102c4:	00000097          	auipc	x1,0x0
   102c8:	f4c080e7          	jalr	-180(x1) # 10210 <gcd>
   102cc:	00050593          	mv	x11,x10
   102d0:	00048513          	mv	x10,x9
   102d4:	00000097          	auipc	x1,0x0
   102d8:	110080e7          	jalr	272(x1) # 103e4 <__divsi3>
   102dc:	00040613          	mv	x12,x8
   102e0:	41f45693          	srai	x13,x8,0x1f
   102e4:	41f55593          	srai	x11,x10,0x1f
   102e8:	00000097          	auipc	x1,0x0
   102ec:	204080e7          	jalr	516(x1) # 104ec <__muldi3>
   102f0:	00c12083          	lw	x1,12(x2)
   102f4:	00812403          	lw	x8,8(x2)
   102f8:	00412483          	lw	x9,4(x2)
   102fc:	01010113          	addi	x2,x2,16
   10300:	00008067          	ret

00010304 <iter>:
   10304:	04058863          	beqz	x11,10354 <iter+0x50>
   10308:	ff010113          	addi	x2,x2,-16
   1030c:	00112623          	sw	x1,12(x2)
   10310:	00812423          	sw	x8,8(x2)
   10314:	00912223          	sw	x9,4(x2)
   10318:	00050493          	mv	x9,x10
   1031c:	00058793          	mv	x15,x11
   10320:	00052503          	lw	x10,0(x10)
   10324:	41f55593          	srai	x11,x10,0x1f
   10328:	00100713          	li	x14,1
   1032c:	02f75a63          	bge	x14,x15,10360 <iter+0x5c>
   10330:	00448413          	addi	x8,x9,4
   10334:	00279793          	slli	x15,x15,0x2
   10338:	00f484b3          	add	x9,x9,x15
   1033c:	00042583          	lw	x11,0(x8)
   10340:	00000097          	auipc	x1,0x0
   10344:	f6c080e7          	jalr	-148(x1) # 102ac <lcm>
   10348:	00440413          	addi	x8,x8,4
   1034c:	fe9418e3          	bne	x8,x9,1033c <iter+0x38>
   10350:	0100006f          	j	10360 <iter+0x5c>
   10354:	fff00513          	li	x10,-1
   10358:	fff00593          	li	x11,-1
   1035c:	00008067          	ret
   10360:	00c12083          	lw	x1,12(x2)
   10364:	00812403          	lw	x8,8(x2)
   10368:	00412483          	lw	x9,4(x2)
   1036c:	01010113          	addi	x2,x2,16
   10370:	00008067          	ret

00010374 <__udivmodsi4>:
   10374:	04a5fe63          	bgeu	x11,x10,103d0 <__udivmodsi4+0x5c>
   10378:	0605c063          	bltz	x11,103d8 <__udivmodsi4+0x64>
   1037c:	00100793          	li	x15,1
   10380:	00159593          	slli	x11,x11,0x1
   10384:	00179793          	slli	x15,x15,0x1
   10388:	00a5e863          	bltu	x11,x10,10398 <__udivmodsi4+0x24>
   1038c:	00078713          	mv	x14,x15
   10390:	02078a63          	beqz	x15,103c4 <__udivmodsi4+0x50>
   10394:	00c0006f          	j	103a0 <__udivmodsi4+0x2c>
   10398:	02078463          	beqz	x15,103c0 <__udivmodsi4+0x4c>
   1039c:	fe05d2e3          	bgez	x11,10380 <__udivmodsi4+0xc>
   103a0:	00000713          	li	x14,0
   103a4:	00b56663          	bltu	x10,x11,103b0 <__udivmodsi4+0x3c>
   103a8:	40b50533          	sub	x10,x10,x11
   103ac:	00f76733          	or	x14,x14,x15
   103b0:	0017d793          	srli	x15,x15,0x1
   103b4:	0015d593          	srli	x11,x11,0x1
   103b8:	fe0796e3          	bnez	x15,103a4 <__udivmodsi4+0x30>
   103bc:	0080006f          	j	103c4 <__udivmodsi4+0x50>
   103c0:	00078713          	mv	x14,x15
   103c4:	00061e63          	bnez	x12,103e0 <__udivmodsi4+0x6c>
   103c8:	00070513          	mv	x10,x14
   103cc:	00008067          	ret
   103d0:	00100793          	li	x15,1
   103d4:	fcdff06f          	j	103a0 <__udivmodsi4+0x2c>
   103d8:	00100793          	li	x15,1
   103dc:	fc5ff06f          	j	103a0 <__udivmodsi4+0x2c>
   103e0:	00008067          	ret

000103e4 <__divsi3>:
   103e4:	ff010113          	addi	x2,x2,-16
   103e8:	00112623          	sw	x1,12(x2)
   103ec:	02055c63          	bgez	x10,10424 <__divsi3+0x40>
   103f0:	40a00533          	neg	x10,x10
   103f4:	0405c463          	bltz	x11,1043c <__divsi3+0x58>
   103f8:	00c0006f          	j	10404 <__divsi3+0x20>
   103fc:	40a00533          	neg	x10,x10
   10400:	04c0006f          	j	1044c <__divsi3+0x68>
   10404:	00000613          	li	x12,0
   10408:	00000097          	auipc	x1,0x0
   1040c:	f6c080e7          	jalr	-148(x1) # 10374 <__udivmodsi4>
   10410:	fedff06f          	j	103fc <__divsi3+0x18>
   10414:	00000613          	li	x12,0
   10418:	00000097          	auipc	x1,0x0
   1041c:	f5c080e7          	jalr	-164(x1) # 10374 <__udivmodsi4>
   10420:	02c0006f          	j	1044c <__divsi3+0x68>
   10424:	fe05d8e3          	bgez	x11,10414 <__divsi3+0x30>
   10428:	00000613          	li	x12,0
   1042c:	40b005b3          	neg	x11,x11
   10430:	00000097          	auipc	x1,0x0
   10434:	f44080e7          	jalr	-188(x1) # 10374 <__udivmodsi4>
   10438:	fc5ff06f          	j	103fc <__divsi3+0x18>
   1043c:	00000613          	li	x12,0
   10440:	40b005b3          	neg	x11,x11
   10444:	00000097          	auipc	x1,0x0
   10448:	f30080e7          	jalr	-208(x1) # 10374 <__udivmodsi4>
   1044c:	00c12083          	lw	x1,12(x2)
   10450:	01010113          	addi	x2,x2,16
   10454:	00008067          	ret

00010458 <__modsi3>:
   10458:	ff010113          	addi	x2,x2,-16
   1045c:	00112623          	sw	x1,12(x2)
   10460:	02055463          	bgez	x10,10488 <__modsi3+0x30>
   10464:	41f5d793          	srai	x15,x11,0x1f
   10468:	00b7c5b3          	xor	x11,x15,x11
   1046c:	00100613          	li	x12,1
   10470:	40f585b3          	sub	x11,x11,x15
   10474:	40a00533          	neg	x10,x10
   10478:	00000097          	auipc	x1,0x0
   1047c:	efc080e7          	jalr	-260(x1) # 10374 <__udivmodsi4>
   10480:	40a00533          	neg	x10,x10
   10484:	01c0006f          	j	104a0 <__modsi3+0x48>
   10488:	41f5d793          	srai	x15,x11,0x1f
   1048c:	00b7c5b3          	xor	x11,x15,x11
   10490:	00100613          	li	x12,1
   10494:	40f585b3          	sub	x11,x11,x15
   10498:	00000097          	auipc	x1,0x0
   1049c:	edc080e7          	jalr	-292(x1) # 10374 <__udivmodsi4>
   104a0:	00c12083          	lw	x1,12(x2)
   104a4:	01010113          	addi	x2,x2,16
   104a8:	00008067          	ret

000104ac <__udivsi3>:
   104ac:	ff010113          	addi	x2,x2,-16
   104b0:	00112623          	sw	x1,12(x2)
   104b4:	00000613          	li	x12,0
   104b8:	00000097          	auipc	x1,0x0
   104bc:	ebc080e7          	jalr	-324(x1) # 10374 <__udivmodsi4>
   104c0:	00c12083          	lw	x1,12(x2)
   104c4:	01010113          	addi	x2,x2,16
   104c8:	00008067          	ret

000104cc <__umodsi3>:
   104cc:	ff010113          	addi	x2,x2,-16
   104d0:	00112623          	sw	x1,12(x2)
   104d4:	00100613          	li	x12,1
   104d8:	00000097          	auipc	x1,0x0
   104dc:	e9c080e7          	jalr	-356(x1) # 10374 <__udivmodsi4>
   104e0:	00c12083          	lw	x1,12(x2)
   104e4:	01010113          	addi	x2,x2,16
   104e8:	00008067          	ret

000104ec <__muldi3>:
   104ec:	00050893          	mv	x17,x10
   104f0:	00058313          	mv	x6,x11
   104f4:	00050793          	mv	x15,x10
   104f8:	00b567b3          	or	x15,x10,x11
   104fc:	06078463          	beqz	x15,10564 <__muldi3+0x78>
   10500:	00000513          	li	x10,0
   10504:	00000593          	li	x11,0
   10508:	0018f793          	andi	x15,x17,1
   1050c:	00078e63          	beqz	x15,10528 <__muldi3+0x3c>
   10510:	00c507b3          	add	x15,x10,x12
   10514:	00a7b533          	sltu	x10,x15,x10
   10518:	00d58733          	add	x14,x11,x13
   1051c:	00e505b3          	add	x11,x10,x14
   10520:	00058713          	mv	x14,x11
   10524:	00078513          	mv	x10,x15
   10528:	01f31713          	slli	x14,x6,0x1f
   1052c:	0018d793          	srli	x15,x17,0x1
   10530:	00f767b3          	or	x15,x14,x15
   10534:	00135e13          	srli	x28,x6,0x1
   10538:	00078893          	mv	x17,x15
   1053c:	000e0313          	mv	x6,x28
   10540:	01f65813          	srli	x16,x12,0x1f
   10544:	00169713          	slli	x14,x13,0x1
   10548:	00080693          	mv	x13,x16
   1054c:	00e866b3          	or	x13,x16,x14
   10550:	00161613          	slli	x12,x12,0x1
   10554:	00078713          	mv	x14,x15
   10558:	01c7e733          	or	x14,x15,x28
   1055c:	fa0716e3          	bnez	x14,10508 <__muldi3+0x1c>
   10560:	00008067          	ret
   10564:	00008067          	ret

Disassembly of section .comment:

00000000 <.comment>:
   0:	3a434347          	fmsub.d	f6,f6,f4,f7,rmm
   4:	2820                	fld	f8,80(x8)
   6:	29554e47          	fmsub.s	f28,f10,f21,f5,rmm
   a:	3720                	fld	f8,104(x14)
   c:	322e                	fld	f4,232(x2)
   e:	302e                	fld	f0,232(x2)
	...

Disassembly of section .riscv.attributes:

00000000 <.riscv.attributes>:
   0:	1e41                	addi	x28,x28,-16
   2:	0000                	unimp
   4:	7200                	flw	f8,32(x12)
   6:	7369                	lui	x6,0xffffa
   8:	01007663          	bgeu	x0,x16,14 <_start-0x10040>
   c:	0014                	0x14
   e:	0000                	unimp
  10:	7205                	lui	x4,0xfffe1
  12:	3376                	fld	f6,376(x2)
  14:	6932                	flw	f18,12(x2)
  16:	7032                	flw	f0,44(x2)
  18:	5f30                	lw	x12,120(x14)
  1a:	326d                	jal	fffff9c4 <__global_pointer$+0xfffedc5c>
  1c:	3070                	fld	f12,224(x8)
	...
0000000 37 01 00 84 13 01 01 d4 23 2e 11 2a 23 2c 81 2a
0000010 23 2a 91 2a 23 28 21 2b 23 26 31 2b 23 24 41 2b
0000020 23 22 51 2b 23 20 a1 2b 37 ed ff de 13 0d fd ef
0000030 93 07 c0 03 23 20 f1 06 93 04 10 00 13 09 00 09
0000040 13 8a f4 ff 93 05 c0 00 13 85 04 00 97 00 00 00
0000050 e7 80 c0 40 13 04 05 00 93 05 c0 00 13 85 04 00
0000060 97 00 00 00 e7 80 80 41 13 17 14 00 33 07 87 00
0000070 93 17 27 00 13 87 07 00 33 84 a7 00 13 14 24 00
0000080 93 07 01 2a 33 84 87 00 93 05 c0 00 13 05 0a 00
0000090 97 00 00 00 e7 80 80 3c 93 09 05 00 93 05 c0 00
00000a0 13 05 0a 00 97 00 00 00 e7 80 40 3d 13 97 19 00
00000b0 33 07 37 01 93 17 27 00 13 87 07 00 b3 87 a7 00
00000c0 93 97 27 00 13 07 01 2a b3 07 f7 00 83 a7 07 dc
00000d0 13 95 37 00 33 05 f5 40 93 05 90 02 13 05 d5 01
00000e0 97 00 00 00 e7 80 40 32 23 20 a4 dc 93 84 14 00
00000f0 e3 98 24 f5 13 04 01 06 93 09 01 00 13 09 01 2a
0000100 93 84 09 00 93 05 c0 00 13 05 04 00 97 00 00 00
0000110 e7 80 40 1a 23 a0 a4 00 23 a2 b4 00 13 04 04 03
0000120 93 84 84 00 e3 10 24 ff 13 04 10 00 13 09 00 00
0000130 93 04 00 00 13 0a 00 00 93 0a d0 00 03 a6 09 00
0000140 83 a6 49 00 13 05 04 00 93 05 09 00 97 00 00 00
0000150 e7 80 c0 34 33 87 a4 00 b3 37 97 00 b3 06 ba 00
0000160 b3 87 d7 00 93 86 07 00 93 04 07 00 13 8a 07 00
0000170 93 89 89 00 93 07 14 00 33 b7 87 00 13 84 07 00
0000180 33 09 27 01 e3 9c 57 fb e3 1a 09 fa b7 67 8f 04
0000190 93 87 07 fa 63 96 f4 00 93 07 20 01 63 88 f6 00
00001a0 b7 c7 ad 0b 93 87 e7 0d 6f 00 c0 00 b7 67 0d 60
00001b0 93 87 d7 00 13 8d 07 00 6f 00 00 00 b3 67 b5 00
00001c0 63 8c 07 04 13 01 01 ff 23 26 11 00 23 24 81 00
00001d0 23 22 91 00 93 84 05 00 63 58 b5 00 93 07 05 00
00001e0 13 85 05 00 93 84 07 00 63 0c 05 02 63 92 04 04
00001f0 93 04 05 00 6f 00 40 03 93 05 04 00 13 85 04 00
0000200 97 00 00 00 e7 80 40 20 93 04 04 00 13 04 05 00
0000210 e3 14 04 fe 6f 00 40 01 13 05 10 00 67 80 00 00
0000220 13 85 04 00 6f 00 00 02 13 85 04 00 6f 00 80 01
0000230 93 85 04 00 97 00 00 00 e7 80 00 1d 13 04 05 00
0000240 6f f0 1f fd 83 20 c1 00 03 24 81 00 83 24 41 00
0000250 13 01 01 01 67 80 00 00 13 01 01 ff 23 26 11 00
0000260 23 24 81 00 23 22 91 00 13 04 05 00 93 84 05 00
0000270 97 00 00 00 e7 80 c0 f4 93 05 05 00 13 85 04 00
0000280 97 00 00 00 e7 80 00 11 13 06 04 00 93 56 f4 41
0000290 93 55 f5 41 97 00 00 00 e7 80 40 20 83 20 c1 00
00002a0 03 24 81 00 83 24 41 00 13 01 01 01 67 80 00 00
00002b0 63 88 05 04 13 01 01 ff 23 26 11 00 23 24 81 00
00002c0 23 22 91 00 93 04 05 00 93 87 05 00 03 25 05 00
00002d0 93 55 f5 41 13 07 10 00 63 5a f7 02 13 84 44 00
00002e0 93 97 27 00 b3 84 f4 00 83 25 04 00 97 00 00 00
00002f0 e7 80 c0 f6 13 04 44 00 e3 18 94 fe 6f 00 00 01
0000300 13 05 f0 ff 93 05 f0 ff 67 80 00 00 83 20 c1 00
0000310 03 24 81 00 83 24 41 00 13 01 01 01 67 80 00 00
0000320 63 fe a5 04 63 c0 05 06 93 07 10 00 93 95 15 00
0000330 93 97 17 00 63 e8 a5 00 13 87 07 00 63 8a 07 02
0000340 6f 00 c0 00 63 84 07 02 e3 d2 05 fe 13 07 00 00
0000350 63 66 b5 00 33 05 b5 40 33 67 f7 00 93 d7 17 00
0000360 93 d5 15 00 e3 96 07 fe 6f 00 80 00 13 87 07 00
0000370 63 1e 06 00 13 05 07 00 67 80 00 00 93 07 10 00
0000380 6f f0 df fc 93 07 10 00 6f f0 5f fc 67 80 00 00
0000390 13 01 01 ff 23 26 11 00 63 5c 05 02 33 05 a0 40
00003a0 63 c4 05 04 6f 00 c0 00 33 05 a0 40 6f 00 c0 04
00003b0 13 06 00 00 97 00 00 00 e7 80 c0 f6 6f f0 df fe
00003c0 13 06 00 00 97 00 00 00 e7 80 c0 f5 6f 00 c0 02
00003d0 e3 d8 05 fe 13 06 00 00 b3 05 b0 40 97 00 00 00
00003e0 e7 80 40 f4 6f f0 5f fc 13 06 00 00 b3 05 b0 40
00003f0 97 00 00 00 e7 80 00 f3 83 20 c1 00 13 01 01 01
0000400 67 80 00 00 13 01 01 ff 23 26 11 00 63 54 05 02
0000410 93 d7 f5 41 b3 c5 b7 00 13 06 10 00 b3 85 f5 40
0000420 33 05 a0 40 97 00 00 00 e7 80 c0 ef 33 05 a0 40
0000430 6f 00 c0 01 93 d7 f5 41 b3 c5 b7 00 13 06 10 00
0000440 b3 85 f5 40 97 00 00 00 e7 80 c0 ed 83 20 c1 00
0000450 13 01 01 01 67 80 00 00 13 01 01 ff 23 26 11 00
0000460 13 06 00 00 97 00 00 00 e7 80 c0 eb 83 20 c1 00
0000470 13 01 01 01 67 80 00 00 13 01 01 ff 23 26 11 00
0000480 13 06 10 00 97 00 00 00 e7 80 c0 e9 83 20 c1 00
0000490 13 01 01 01 67 80 00 00 93 08 05 00 13 83 05 00
00004a0 93 07 05 00 b3 67 b5 00 63 84 07 06 13 05 00 00
00004b0 93 05 00 00 93 f7 18 00 63 8e 07 00 b3 07 c5 00
00004c0 33 b5 a7 00 33 87 d5 00 b3 05 e5 00 13 87 05 00
00004d0 13 85 07 00 13 17 f3 01 93 d7 18 00 b3 67 f7 00
00004e0 13 5e 13 00 93 88 07 00 13 03 0e 00 13 58 f6 01
00004f0 13 97 16 00 93 06 08 00 b3 66 e8 00 13 16 16 00
0000500 13 87 07 00 33 e7 c7 01 e3 16 07 fa 67 80 00 00
0000510 67 80 00 00                                    
0000514
Target file /Users/liuzikai/Documents/Courses/ECE 411/0_warning_0_error/mp4/bin/../simulation/modelsim/memory.lst exists.
Assembled ../testcode/comp2_i.s and wrote memory contents to /Users/liuzikai/Documents/Courses/ECE 411/0_warning_0_error/mp4/bin/../simulation/modelsim/memory.lst
